target datalayout = "e-m:e-p270:32:32-p271:32:32-p272:64:64-i64:64-i128:128-f80:128-n8:16:32:64-S128"
target triple = "x86_64-pc-linux-gnu"

%struct.cfl_ctx = type { [1024 x i16], [1024 x i16], [2 x i32], i32, [2 x [32 x i16]], i32, i32, i32, i32, i32, i32 }
%struct.SequenceHeader = type { i32, i32, i32, i32, i8, i32, i32, i8, i32, i32, %struct.OrderHintInfo, i8, i8, i8, i8, i8, i8, i8, i8, i8, i8, i8, i8, i8, i8, i32, i8, i8, i32, i32, i32, i32, i32, i32, i32, i8, i8, i32, [32 x i32], i32, %struct.aom_timing, i8, %struct.aom_dec_model_info, i8, [32 x i8], [32 x i8], [33 x %struct.aom_dec_model_op_parameters] }
%struct.OrderHintInfo = type { i32, i32, i32, i32 }
%struct.aom_timing = type { i32, i32, i32, i32 }
%struct.aom_dec_model_info = type { i32, i32, i32, i32 }
%struct.aom_dec_model_op_parameters = type { i32, i64, i64, i32, i32, i32, i32, i32 }

; Function Attrs: nounwind uwtable
define hidden void @cfl_init(ptr noundef %0, ptr noundef %1) #0 {
  %3 = alloca ptr, align 8
  %4 = alloca ptr, align 8
  store ptr %0, ptr %3, align 8
  store ptr %1, ptr %4, align 8
  %5 = load ptr, ptr %3, align 8
  %6 = getelementptr inbounds nuw %struct.cfl_ctx, ptr %5, i32 0, i32 0
  call void @llvm.memset.p0.i64(ptr align 4 %6, i8 0, i64 2048, i1 false)
  %7 = load ptr, ptr %3, align 8
  %8 = getelementptr inbounds nuw %struct.cfl_ctx, ptr %7, i32 0, i32 1
  call void @llvm.memset.p0.i64(ptr align 4 %8, i8 0, i64 2048, i1 false)
  %9 = load ptr, ptr %4, align 8
  %10 = getelementptr inbounds nuw %struct.SequenceHeader, ptr %9, i32 0, i32 32
  %11 = load i32, ptr %10, align 8
  %12 = load ptr, ptr %3, align 8
  %13 = getelementptr inbounds nuw %struct.cfl_ctx, ptr %12, i32 0, i32 8
  store i32 %11, ptr %13, align 4
  %14 = load ptr, ptr %4, align 8
  %15 = getelementptr inbounds nuw %struct.SequenceHeader, ptr %14, i32 0, i32 33
  %16 = load i32, ptr %15, align 4
  %17 = load ptr, ptr %3, align 8
  %18 = getelementptr inbounds nuw %struct.cfl_ctx, ptr %17, i32 0, i32 9
  store i32 %16, ptr %18, align 4
  %19 = load ptr, ptr %3, align 8
  %20 = getelementptr inbounds nuw %struct.cfl_ctx, ptr %19, i32 0, i32 7
  store i32 0, ptr %20, align 4
  %21 = load ptr, ptr %3, align 8
  %22 = getelementptr inbounds nuw %struct.cfl_ctx, ptr %21, i32 0, i32 10
  store i32 0, ptr %22, align 4
  %23 = load ptr, ptr %3, align 8
  %24 = getelementptr inbounds nuw %struct.cfl_ctx, ptr %23, i32 0, i32 3
  store i32 0, ptr %24, align 4
  %25 = load ptr, ptr %3, align 8
  %26 = getelementptr inbounds nuw %struct.cfl_ctx, ptr %25, i32 0, i32 2
  %27 = getelementptr inbounds [2 x i32], ptr %26, i64 0, i64 0
  store i32 0, ptr %27, align 4
  %28 = load ptr, ptr %3, align 8
  %29 = getelementptr inbounds nuw %struct.cfl_ctx, ptr %28, i32 0, i32 2
  %30 = getelementptr inbounds [2 x i32], ptr %29, i64 0, i64 1
  store i32 0, ptr %30, align 4
  ret void
}