; Function Attrs: mustprogress nofree norecurse nosync nounwind willreturn memory(argmem: readwrite) uwtable
define hidden void @cfl_init(ptr nocapture noundef writeonly %0, ptr nocapture noundef readonly %1) local_unnamed_addr #0 {
  %3 = getelementptr inbounds nuw i8, ptr %1, i64 96
  tail call void @llvm.memset.p0.i64(ptr noundef nonnull align 4 dereferenceable(4096) %0, i8 0, i64 4096, i1 false)
  %4 = load i32, ptr %3, align 8
  %5 = getelementptr inbounds nuw i8, ptr %0, i64 4248
  store i32 %4, ptr %5, align 4
  %6 = getelementptr inbounds nuw i8, ptr %1, i64 100
  %7 = load i32, ptr %6, align 4
  %8 = getelementptr inbounds nuw i8, ptr %0, i64 4252
  store i32 %7, ptr %8, align 4
  %9 = getelementptr inbounds nuw i8, ptr %0, i64 4244
  store i32 0, ptr %9, align 4
  %10 = getelementptr inbounds nuw i8, ptr %0, i64 4256
  store i32 0, ptr %10, align 4
  %11 = getelementptr inbounds nuw i8, ptr %0, i64 4104
  store i32 0, ptr %11, align 4
  %12 = getelementptr inbounds nuw i8, ptr %0, i64 4096
  store i32 0, ptr %12, align 4
  %13 = getelementptr inbounds i8, ptr %0, i64 4100
  store i32 0, ptr %13, align 4
  ret void
}